target datalayout = "e-m:e-p270:32:32-p271:32:32-p272:64:64-i64:64-i128:128-f80:128-n8:16:32:64-S128"
target triple = "x86_64-pc-linux-gnu"

%struct.servent = type { ptr, ptr, i32, ptr }

@PyExc_OSError = external global ptr, align 8
@.str.55 = private unnamed_addr constant [18 x i8] c"i|s:getservbyport\00", align 1
@PyExc_OverflowError = external global ptr, align 8
@.str.56 = private unnamed_addr constant [37 x i8] c"getservbyport: port must be 0-65535.\00", align 1
@.str.57 = private unnamed_addr constant [21 x i8] c"socket.getservbyport\00", align 1
@.str.58 = private unnamed_addr constant [3 x i8] c"is\00", align 1
@.str.59 = private unnamed_addr constant [21 x i8] c"port/proto not found\00", align 1

; Function Attrs: inlinehint nounwind uwtable
define internal zeroext i16 @__bswap_16(i16 noundef zeroext %0) #3 {
  %2 = alloca i16, align 2
  store i16 %0, ptr %2, align 2, !tbaa !104
  %3 = load i16, ptr %2, align 2, !tbaa !104
  %4 = zext i16 %3 to i32
  %5 = ashr i32 %4, 8
  %6 = and i32 %5, 255
  %7 = load i16, ptr %2, align 2, !tbaa !104
  %8 = zext i16 %7 to i32
  %9 = and i32 %8, 255
  %10 = shl i32 %9, 8
  %11 = or i32 %6, %10
  %12 = trunc i32 %11 to i16
  ret i16 %12
}

; Function Attrs: nounwind uwtable
define internal ptr @socket_getservbyport(ptr noundef %0, ptr noundef %1) #0 {
  %3 = alloca ptr, align 8
  %4 = alloca ptr, align 8
  %5 = alloca ptr, align 8
  %6 = alloca i32, align 4
  %7 = alloca ptr, align 8
  %8 = alloca ptr, align 8
  %9 = alloca i32, align 4
  %10 = alloca ptr, align 8
  store ptr %0, ptr %4, align 8, !tbaa !3
  store ptr %1, ptr %5, align 8, !tbaa !3
  call void @llvm.lifetime.start.p0(i64 4, ptr %6) #10
  call void @llvm.lifetime.start.p0(i64 8, ptr %7) #10
  store ptr null, ptr %7, align 8, !tbaa !24
  call void @llvm.lifetime.start.p0(i64 8, ptr %8) #10
  %11 = load ptr, ptr %5, align 8, !tbaa !3
  %12 = call i32 (ptr, ptr, ...) @PyArg_ParseTuple(ptr noundef %11, ptr noundef @.str.55, ptr noundef %6, ptr noundef %7)
  %13 = icmp ne i32 %12, 0
  br i1 %13, label %15, label %14

14:                                               ; preds = %2
  store ptr null, ptr %3, align 8
  store i32 1, ptr %9, align 4
  br label %47

15:                                               ; preds = %2
  %16 = load i32, ptr %6, align 4, !tbaa !15
  %17 = icmp slt i32 %16, 0
  br i1 %17, label %21, label %18

18:                                               ; preds = %15
  %19 = load i32, ptr %6, align 4, !tbaa !15
  %20 = icmp sgt i32 %19, 65535
  br i1 %20, label %21, label %23

21:                                               ; preds = %18, %15
  %22 = load ptr, ptr @PyExc_OverflowError, align 8, !tbaa !3
  call void @PyErr_SetString(ptr noundef %22, ptr noundef @.str.56)
  store ptr null, ptr %3, align 8
  store i32 1, ptr %9, align 4
  br label %47

23:                                               ; preds = %18
  %24 = load i32, ptr %6, align 4, !tbaa !15
  %25 = load ptr, ptr %7, align 8, !tbaa !24
  %26 = call i32 (ptr, ptr, ...) @PySys_Audit(ptr noundef @.str.57, ptr noundef @.str.58, i32 noundef %24, ptr noundef %25)
  %27 = icmp slt i32 %26, 0
  br i1 %27, label %28, label %29

28:                                               ; preds = %23
  store ptr null, ptr %3, align 8
  store i32 1, ptr %9, align 4
  br label %47

29:                                               ; preds = %23
  call void @llvm.lifetime.start.p0(i64 8, ptr %10) #10
  %30 = call ptr @PyEval_SaveThread()
  store ptr %30, ptr %10, align 8, !tbaa !26
  %31 = load i32, ptr %6, align 4, !tbaa !15
  %32 = trunc i32 %31 to i16
  %33 = call zeroext i16 @__bswap_16(i16 noundef zeroext %32)
  %34 = zext i16 %33 to i32
  %35 = load ptr, ptr %7, align 8, !tbaa !24
  %36 = call ptr @getservbyport(i32 noundef %34, ptr noundef %35)
  store ptr %36, ptr %8, align 8, !tbaa !40
  %37 = load ptr, ptr %10, align 8, !tbaa !26
  call void @PyEval_RestoreThread(ptr noundef %37)
  call void @llvm.lifetime.end.p0(i64 8, ptr %10) #10
  %38 = load ptr, ptr %8, align 8, !tbaa !40
  %39 = icmp eq ptr %38, null
  br i1 %39, label %40, label %42

40:                                               ; preds = %29
  %41 = load ptr, ptr @PyExc_OSError, align 8, !tbaa !3
  call void @PyErr_SetString(ptr noundef %41, ptr noundef @.str.59)
  store ptr null, ptr %3, align 8
  store i32 1, ptr %9, align 4
  br label %47

42:                                               ; preds = %29
  %43 = load ptr, ptr %8, align 8, !tbaa !40
  %44 = getelementptr inbounds nuw %struct.servent, ptr %43, i32 0, i32 0
  %45 = load ptr, ptr %44, align 8, !tbaa !45
  %46 = call ptr @PyUnicode_FromString(ptr noundef %45)
  store ptr %46, ptr %3, align 8
  store i32 1, ptr %9, align 4
  br label %47

47:                                               ; preds = %42, %40, %28, %21, %14
  call void @llvm.lifetime.end.p0(i64 8, ptr %8) #10
  call void @llvm.lifetime.end.p0(i64 8, ptr %7) #10
  call void @llvm.lifetime.end.p0(i64 4, ptr %6) #10
  %48 = load ptr, ptr %3, align 8
  ret ptr %48
}