; Function Attrs: nounwind uwtable
define internal ptr @socket_getservbyport(ptr readnone captures(none) %0, ptr noundef %1) #0 {
  %3 = alloca i32, align 4
  %4 = alloca ptr, align 8
  call void @llvm.lifetime.start.p0(i64 4, ptr nonnull %3) #13
  call void @llvm.lifetime.start.p0(i64 8, ptr nonnull %4) #13
  store ptr null, ptr %4, align 8, !tbaa !20
  %5 = call i32 (ptr, ptr, ...) @PyArg_ParseTuple(ptr noundef %1, ptr noundef nonnull @.str.55, ptr noundef nonnull %3, ptr noundef nonnull %4) #13
  %.not = icmp eq i32 %5, 0
  br i1 %.not, label %27, label %6

6:                                                ; preds = %2
  %7 = load i32, ptr %3, align 4, !tbaa !35
  %or.cond = icmp ugt i32 %7, 65535
  br i1 %or.cond, label %8, label %10

8:                                                ; preds = %6
  %9 = load ptr, ptr @PyExc_OverflowError, align 8, !tbaa !19
  call void @PyErr_SetString(ptr noundef %9, ptr noundef nonnull @.str.56) #13
  br label %27

10:                                               ; preds = %6
  %11 = load ptr, ptr %4, align 8, !tbaa !20
  %12 = call i32 (ptr, ptr, ...) @PySys_Audit(ptr noundef nonnull @.str.57, ptr noundef nonnull @.str.58, i32 noundef %7, ptr noundef %11) #13
  %13 = icmp slt i32 %12, 0
  br i1 %13, label %27, label %14

14:                                               ; preds = %10
  %15 = call ptr @PyEval_SaveThread() #13
  %16 = load i32, ptr %3, align 4, !tbaa !35
  %17 = trunc i32 %16 to i16
  %rev.i = call noundef i16 @llvm.bswap.i16(i16 %17)
  %18 = zext i16 %rev.i to i32
  %19 = load ptr, ptr %4, align 8, !tbaa !20
  %20 = call ptr @getservbyport(i32 noundef %18, ptr noundef %19) #13
  call void @PyEval_RestoreThread(ptr noundef %15) #13
  %21 = icmp eq ptr %20, null
  br i1 %21, label %22, label %24

22:                                               ; preds = %14
  %23 = load ptr, ptr @PyExc_OSError, align 8, !tbaa !19
  call void @PyErr_SetString(ptr noundef %23, ptr noundef nonnull @.str.59) #13
  br label %27

24:                                               ; preds = %14
  %25 = load ptr, ptr %20, align 8, !tbaa !36
  %26 = call ptr @PyUnicode_FromString(ptr noundef %25) #13
  br label %27

27:                                               ; preds = %10, %2, %24, %22, %8
  %.0 = phi ptr [ null, %8 ], [ null, %22 ], [ %26, %24 ], [ null, %2 ], [ null, %10 ]
  call void @llvm.lifetime.end.p0(i64 8, ptr nonnull %4) #13
  call void @llvm.lifetime.end.p0(i64 4, ptr nonnull %3) #13
  ret ptr %.0
}